; Function Attrs: nounwind uwtable
define hidden void @zif_ob_get_level(ptr noundef readonly captures(none) %0, ptr noundef writeonly captures(none) %1) local_unnamed_addr #0 {
  %3 = getelementptr inbounds nuw i8, ptr %0, i64 44
  %4 = load i32, ptr %3, align 4, !tbaa !8
  %.not = icmp eq i32 %4, 0
  br i1 %.not, label %.critedge, label %5, !prof !113

5:                                                ; preds = %2
  tail call void @zend_wrong_parameters_none_error() #22
  %6 = load ptr, ptr getelementptr inbounds nuw (i8, ptr @executor_globals, i64 960), align 8, !tbaa !112
  %7 = icmp ne ptr %6, null
  tail call void @llvm.assume(i1 %7)
  br label %14

.critedge:                                        ; preds = %2
  %8 = load ptr, ptr getelementptr inbounds nuw (i8, ptr @output_globals, i64 24), align 8, !tbaa !46
  %.not.i = icmp eq ptr %8, null
  br i1 %.not.i, label %php_output_get_level.exit, label %9

9:                                                ; preds = %.critedge
  %10 = tail call i32 @zend_stack_count(ptr noundef nonnull @output_globals) #22
  %11 = sext i32 %10 to i64
  br label %php_output_get_level.exit

php_output_get_level.exit:                        ; preds = %.critedge, %9
  %12 = phi i64 [ %11, %9 ], [ 0, %.critedge ]
  store i64 %12, ptr %1, align 8, !tbaa !8
  %13 = getelementptr inbounds nuw i8, ptr %1, i64 8
  store i32 4, ptr %13, align 8, !tbaa !8
  br label %14

14:                                               ; preds = %php_output_get_level.exit, %5
  ret void
}